target datalayout = "e-m:e-p270:32:32-p271:32:32-p272:64:64-i64:64-i128:128-f80:128-n8:16:32:64-S128"
target triple = "x86_64-pc-linux-gnu"

%struct.sqlca_t = type { [8 x i8], i64, i64, %struct.anon, [8 x i8], [6 x i64], [8 x i8], [5 x i8] }
%struct.anon = type { i32, [150 x i8] }

@.str.34 = private unnamed_addr constant [14 x i8] c"out of memory\00", align 1
@.str.35 = private unnamed_addr constant [6 x i8] c"YE000\00", align 1
@.str.36 = private unnamed_addr constant [19 x i8] c"empty message text\00", align 1
@.str.37 = private unnamed_addr constant [3 x i8] c"00\00", align 1
@.str.38 = private unnamed_addr constant [24 x i8] c"ECPGnoticeReceiver: %s\0A\00", align 1
@.str.39 = private unnamed_addr constant [6 x i8] c"34000\00", align 1
@.str.40 = private unnamed_addr constant [6 x i8] c"25001\00", align 1
@.str.41 = private unnamed_addr constant [6 x i8] c"25P01\00", align 1
@.str.42 = private unnamed_addr constant [6 x i8] c"42P03\00", align 1
@.str.43 = private unnamed_addr constant [20 x i8] c"raising sqlcode %d\0A\00", align 1

; Function Attrs: nounwind uwtable
define internal void @ECPGnoticeReceiver(ptr noundef %0, ptr noundef %1) #0 {
  %3 = alloca ptr, align 8
  %4 = alloca ptr, align 8
  %5 = alloca ptr, align 8
  %6 = alloca ptr, align 8
  %7 = alloca ptr, align 8
  %8 = alloca i32, align 4
  %9 = alloca i32, align 4
  store ptr %0, ptr %3, align 8
  store ptr %1, ptr %4, align 8
  call void @llvm.lifetime.start.p0(i64 8, ptr %5) #5
  %10 = load ptr, ptr %4, align 8
  %11 = call ptr @PQresultErrorField(ptr noundef %10, i32 noundef 67)
  store ptr %11, ptr %5, align 8
  call void @llvm.lifetime.start.p0(i64 8, ptr %6) #5
  %12 = load ptr, ptr %4, align 8
  %13 = call ptr @PQresultErrorField(ptr noundef %12, i32 noundef 77)
  store ptr %13, ptr %6, align 8
  call void @llvm.lifetime.start.p0(i64 8, ptr %7) #5
  %14 = call ptr @ECPGget_sqlca()
  store ptr %14, ptr %7, align 8
  call void @llvm.lifetime.start.p0(i64 4, ptr %8) #5
  %15 = load ptr, ptr %7, align 8
  %16 = icmp eq ptr %15, null
  br i1 %16, label %17, label %18

17:                                               ; preds = %2
  call void (ptr, ...) @ecpg_log(ptr noundef @.str.34)
  store i32 1, ptr %9, align 4
  br label %92

18:                                               ; preds = %2
  %19 = load ptr, ptr %5, align 8
  %20 = icmp eq ptr %19, null
  br i1 %20, label %21, label %22

21:                                               ; preds = %18
  store ptr @.str.35, ptr %5, align 8
  br label %22

22:                                               ; preds = %21, %18
  %23 = load ptr, ptr %6, align 8
  %24 = icmp eq ptr %23, null
  br i1 %24, label %25, label %26

25:                                               ; preds = %22
  store ptr @.str.36, ptr %6, align 8
  br label %26

26:                                               ; preds = %25, %22
  %27 = load ptr, ptr %5, align 8
  %28 = call i32 @strncmp(ptr noundef %27, ptr noundef @.str.37, i64 noundef 2) #6
  %29 = icmp eq i32 %28, 0
  br i1 %29, label %30, label %31

30:                                               ; preds = %26
  store i32 1, ptr %9, align 4
  br label %92

31:                                               ; preds = %26
  %32 = load ptr, ptr %6, align 8
  call void (ptr, ...) @ecpg_log(ptr noundef @.str.38, ptr noundef %32)
  %33 = load ptr, ptr %5, align 8
  %34 = call i32 @strcmp(ptr noundef %33, ptr noundef @.str.39) #6
  %35 = icmp eq i32 %34, 0
  br i1 %35, label %36, label %37

36:                                               ; preds = %31
  store i32 -602, ptr %8, align 4
  br label %56

37:                                               ; preds = %31
  %38 = load ptr, ptr %5, align 8
  %39 = call i32 @strcmp(ptr noundef %38, ptr noundef @.str.40) #6
  %40 = icmp eq i32 %39, 0
  br i1 %40, label %41, label %42

41:                                               ; preds = %37
  store i32 -603, ptr %8, align 4
  br label %55

42:                                               ; preds = %37
  %43 = load ptr, ptr %5, align 8
  %44 = call i32 @strcmp(ptr noundef %43, ptr noundef @.str.41) #6
  %45 = icmp eq i32 %44, 0
  br i1 %45, label %46, label %47

46:                                               ; preds = %42
  store i32 -604, ptr %8, align 4
  br label %54

47:                                               ; preds = %42
  %48 = load ptr, ptr %5, align 8
  %49 = call i32 @strcmp(ptr noundef %48, ptr noundef @.str.42) #6
  %50 = icmp eq i32 %49, 0
  br i1 %50, label %51, label %52

51:                                               ; preds = %47
  store i32 -605, ptr %8, align 4
  br label %53

52:                                               ; preds = %47
  store i32 0, ptr %8, align 4
  br label %53

53:                                               ; preds = %52, %51
  br label %54

54:                                               ; preds = %53, %46
  br label %55

55:                                               ; preds = %54, %41
  br label %56

56:                                               ; preds = %55, %36
  %57 = load ptr, ptr %7, align 8
  %58 = getelementptr inbounds nuw %struct.sqlca_t, ptr %57, i32 0, i32 7
  %59 = getelementptr inbounds [5 x i8], ptr %58, i64 0, i64 0
  %60 = load ptr, ptr %5, align 8
  %61 = call ptr @strncpy(ptr noundef %59, ptr noundef %60, i64 noundef 5) #5
  %62 = load i32, ptr %8, align 4
  %63 = sext i32 %62 to i64
  %64 = load ptr, ptr %7, align 8
  %65 = getelementptr inbounds nuw %struct.sqlca_t, ptr %64, i32 0, i32 2
  store i64 %63, ptr %65, align 8
  %66 = load ptr, ptr %7, align 8
  %67 = getelementptr inbounds nuw %struct.sqlca_t, ptr %66, i32 0, i32 6
  %68 = getelementptr inbounds [8 x i8], ptr %67, i64 0, i64 2
  store i8 87, ptr %68, align 2
  %69 = load ptr, ptr %7, align 8
  %70 = getelementptr inbounds nuw %struct.sqlca_t, ptr %69, i32 0, i32 6
  %71 = getelementptr inbounds [8 x i8], ptr %70, i64 0, i64 0
  store i8 87, ptr %71, align 8
  %72 = load ptr, ptr %7, align 8
  %73 = getelementptr inbounds nuw %struct.sqlca_t, ptr %72, i32 0, i32 3
  %74 = getelementptr inbounds nuw %struct.anon, ptr %73, i32 0, i32 1
  %75 = getelementptr inbounds [150 x i8], ptr %74, i64 0, i64 0
  %76 = load ptr, ptr %6, align 8
  %77 = call ptr @strncpy(ptr noundef %75, ptr noundef %76, i64 noundef 150) #5
  %78 = load ptr, ptr %7, align 8
  %79 = getelementptr inbounds nuw %struct.sqlca_t, ptr %78, i32 0, i32 3
  %80 = getelementptr inbounds nuw %struct.anon, ptr %79, i32 0, i32 1
  %81 = getelementptr inbounds nuw [150 x i8], ptr %80, i64 0, i64 149
  store i8 0, ptr %81, align 1
  %82 = load ptr, ptr %7, align 8
  %83 = getelementptr inbounds nuw %struct.sqlca_t, ptr %82, i32 0, i32 3
  %84 = getelementptr inbounds nuw %struct.anon, ptr %83, i32 0, i32 1
  %85 = getelementptr inbounds [150 x i8], ptr %84, i64 0, i64 0
  %86 = call i64 @strlen(ptr noundef %85) #6
  %87 = trunc i64 %86 to i32
  %88 = load ptr, ptr %7, align 8
  %89 = getelementptr inbounds nuw %struct.sqlca_t, ptr %88, i32 0, i32 3
  %90 = getelementptr inbounds nuw %struct.anon, ptr %89, i32 0, i32 0
  store i32 %87, ptr %90, align 8
  %91 = load i32, ptr %8, align 4
  call void (ptr, ...) @ecpg_log(ptr noundef @.str.43, i32 noundef %91)
  store i32 0, ptr %9, align 4
  br label %92

92:                                               ; preds = %56, %30, %17
  call void @llvm.lifetime.end.p0(i64 4, ptr %8) #5
  call void @llvm.lifetime.end.p0(i64 8, ptr %7) #5
  call void @llvm.lifetime.end.p0(i64 8, ptr %6) #5
  call void @llvm.lifetime.end.p0(i64 8, ptr %5) #5
  %93 = load i32, ptr %9, align 4
  switch i32 %93, label %95 [
    i32 0, label %94
    i32 1, label %94
  ]

94:                                               ; preds = %92, %92
  ret void

95:                                               ; preds = %92
  unreachable
}