; Function Attrs: nounwind uwtable
define internal void @ECPGnoticeReceiver(ptr readnone captures(none) %0, ptr noundef %1) #0 {
  %3 = tail call ptr @PQresultErrorField(ptr noundef %1, i32 noundef 67) #8
  %4 = tail call ptr @PQresultErrorField(ptr noundef %1, i32 noundef 77) #8
  %5 = tail call ptr @ECPGget_sqlca() #8
  %6 = icmp eq ptr %5, null
  br i1 %6, label %7, label %sub_0

7:                                                ; preds = %2
  tail call void (ptr, ...) @ecpg_log(ptr noundef nonnull @.str.34) #8
  br label %38

sub_0:                                            ; preds = %2
  %8 = icmp eq ptr %3, null
  %spec.store.select = select i1 %8, ptr @.str.35, ptr %3
  %9 = icmp eq ptr %4, null
  %spec.store.select1 = select i1 %9, ptr @.str.36, ptr %4
  %10 = load i8, ptr %spec.store.select, align 1
  %.not = icmp eq i8 %10, 48
  br i1 %.not, label %.tail, label %.tail.thread

.tail:                                            ; preds = %sub_0
  %11 = getelementptr inbounds nuw i8, ptr %spec.store.select, i64 1
  %12 = load i8, ptr %11, align 1
  %13 = icmp eq i8 %12, 48
  br i1 %13, label %38, label %.tail.thread

.tail.thread:                                     ; preds = %sub_0, %.tail
  tail call void (ptr, ...) @ecpg_log(ptr noundef nonnull @.str.38, ptr noundef nonnull %spec.store.select1) #8
  %14 = tail call i32 @strcmp(ptr noundef nonnull dereferenceable(1) %spec.store.select, ptr noundef nonnull dereferenceable(6) @.str.39) #9
  %15 = icmp eq i32 %14, 0
  br i1 %15, label %25, label %16

16:                                               ; preds = %.tail.thread
  %17 = tail call i32 @strcmp(ptr noundef nonnull dereferenceable(1) %spec.store.select, ptr noundef nonnull dereferenceable(6) @.str.40) #9
  %18 = icmp eq i32 %17, 0
  br i1 %18, label %25, label %19

19:                                               ; preds = %16
  %20 = tail call i32 @strcmp(ptr noundef nonnull dereferenceable(1) %spec.store.select, ptr noundef nonnull dereferenceable(6) @.str.41) #9
  %21 = icmp eq i32 %20, 0
  br i1 %21, label %25, label %22

22:                                               ; preds = %19
  %23 = tail call i32 @strcmp(ptr noundef nonnull dereferenceable(1) %spec.store.select, ptr noundef nonnull dereferenceable(6) @.str.42) #9
  %24 = icmp eq i32 %23, 0
  %. = select i1 %24, i32 -605, i32 0
  br label %25

25:                                               ; preds = %22, %19, %16, %.tail.thread
  %.0 = phi i32 [ -602, %.tail.thread ], [ -603, %16 ], [ -604, %19 ], [ %., %22 ]
  %26 = getelementptr inbounds nuw i8, ptr %5, i64 248
  %27 = tail call ptr @strncpy(ptr noundef nonnull dereferenceable(1) %26, ptr noundef nonnull dereferenceable(1) %spec.store.select, i64 noundef 5) #8
  %28 = sext i32 %.0 to i64
  %29 = getelementptr inbounds nuw i8, ptr %5, i64 16
  store i64 %28, ptr %29, align 8
  %30 = getelementptr inbounds nuw i8, ptr %5, i64 240
  %31 = getelementptr inbounds nuw i8, ptr %5, i64 242
  store i8 87, ptr %31, align 2
  store i8 87, ptr %30, align 8
  %32 = getelementptr inbounds nuw i8, ptr %5, i64 24
  %33 = getelementptr inbounds nuw i8, ptr %5, i64 28
  %34 = tail call ptr @strncpy(ptr noundef nonnull dereferenceable(1) %33, ptr noundef nonnull dereferenceable(1) %spec.store.select1, i64 noundef 150) #8
  %35 = getelementptr inbounds nuw i8, ptr %5, i64 177
  store i8 0, ptr %35, align 1
  %36 = tail call i64 @strlen(ptr noundef nonnull dereferenceable(1) %33) #9
  %37 = trunc i64 %36 to i32
  store i32 %37, ptr %32, align 8
  tail call void (ptr, ...) @ecpg_log(ptr noundef nonnull @.str.43, i32 noundef %.0) #8
  br label %38

38:                                               ; preds = %.tail, %25, %7
  ret void
}